; Function Attrs: mustprogress uwtable
define hidden noundef zeroext i1 @_ZN11OpenImageIO6v3_1_08BmpInput4openERKNSt7__cxx1112basic_stringIcSt11char_traitsIcESaIcEEERNS0_9ImageSpecE(ptr noundef nonnull align 8 dereferenceable(472) %0, ptr noundef nonnull align 8 dereferenceable(32) %1, ptr noundef nonnull align 8 dereferenceable(160) %2) unnamed_addr #6 align 2 personality ptr @__gxx_personality_v0 {
  %4 = alloca %"class.OpenImageIO::v3_1_0::ImageSpec", align 8
  call void @llvm.lifetime.start.p0(i64 160, ptr nonnull %4) #27
  call void @_ZN11OpenImageIO6v3_1_09ImageSpecC1ENS0_8TypeDescE(ptr noundef nonnull align 8 dereferenceable(160) %4, i64 256) #27
  %5 = invoke noundef zeroext i1 @_ZN11OpenImageIO6v3_1_08BmpInput4openERKNSt7__cxx1112basic_stringIcSt11char_traitsIcESaIcEEERNS0_9ImageSpecERKSA_(ptr noundef nonnull align 8 dereferenceable(472) %0, ptr noundef nonnull align 8 dereferenceable(32) %1, ptr noundef nonnull align 8 dereferenceable(160) %2, ptr noundef nonnull align 8 dereferenceable(160) %4)
          to label %6 unwind label %47

6:                                                ; preds = %3
  %7 = getelementptr inbounds nuw i8, ptr %4, i64 136
  %8 = load ptr, ptr %7, align 8, !tbaa !69
  %9 = getelementptr inbounds nuw i8, ptr %4, i64 144
  %10 = load ptr, ptr %9, align 8, !tbaa !70
  %.not4.i.i.i.i.i = icmp eq ptr %8, %10
  br i1 %.not4.i.i.i.i.i, label %_ZSt8_DestroyIPN11OpenImageIO6v3_1_010ParamValueES2_EvT_S4_RSaIT0_E.exit.i.i, label %.lr.ph.i.i.i.i.i

.lr.ph.i.i.i.i.i:                                 ; preds = %6, %.lr.ph.i.i.i.i.i
  %.05.i.i.i.i.i = phi ptr [ %11, %.lr.ph.i.i.i.i.i ], [ %8, %6 ]
  call void @_ZN11OpenImageIO6v3_1_010ParamValue11clear_valueEv(ptr noundef nonnull align 8 dereferenceable(39) %.05.i.i.i.i.i) #27
  %11 = getelementptr inbounds nuw i8, ptr %.05.i.i.i.i.i, i64 40
  %.not.i.i.i.i.i = icmp eq ptr %11, %10
  br i1 %.not.i.i.i.i.i, label %_ZSt8_DestroyIPN11OpenImageIO6v3_1_010ParamValueES2_EvT_S4_RSaIT0_E.exitthread-pre-split.i.i, label %.lr.ph.i.i.i.i.i, !llvm.loop !71

_ZSt8_DestroyIPN11OpenImageIO6v3_1_010ParamValueES2_EvT_S4_RSaIT0_E.exitthread-pre-split.i.i: ; preds = %.lr.ph.i.i.i.i.i
  %.pr.i.i = load ptr, ptr %7, align 8, !tbaa !69
  br label %_ZSt8_DestroyIPN11OpenImageIO6v3_1_010ParamValueES2_EvT_S4_RSaIT0_E.exit.i.i

_ZSt8_DestroyIPN11OpenImageIO6v3_1_010ParamValueES2_EvT_S4_RSaIT0_E.exit.i.i: ; preds = %_ZSt8_DestroyIPN11OpenImageIO6v3_1_010ParamValueES2_EvT_S4_RSaIT0_E.exitthread-pre-split.i.i, %6
  %12 = phi ptr [ %.pr.i.i, %_ZSt8_DestroyIPN11OpenImageIO6v3_1_010ParamValueES2_EvT_S4_RSaIT0_E.exitthread-pre-split.i.i ], [ %8, %6 ]
  %.not.i.i.i.i = icmp eq ptr %12, null
  br i1 %.not.i.i.i.i, label %_ZNSt6vectorIN11OpenImageIO6v3_1_010ParamValueESaIS2_EED2Ev.exit.i, label %13

13:                                               ; preds = %_ZSt8_DestroyIPN11OpenImageIO6v3_1_010ParamValueES2_EvT_S4_RSaIT0_E.exit.i.i
  %14 = getelementptr inbounds nuw i8, ptr %4, i64 152
  %15 = load ptr, ptr %14, align 8, !tbaa !73
  %16 = ptrtoint ptr %15 to i64
  %17 = ptrtoint ptr %12 to i64
  %18 = sub i64 %16, %17
  call void @_ZdlPvm(ptr noundef nonnull %12, i64 noundef %18) #28
  br label %_ZNSt6vectorIN11OpenImageIO6v3_1_010ParamValueESaIS2_EED2Ev.exit.i

_ZNSt6vectorIN11OpenImageIO6v3_1_010ParamValueESaIS2_EED2Ev.exit.i: ; preds = %13, %_ZSt8_DestroyIPN11OpenImageIO6v3_1_010ParamValueES2_EvT_S4_RSaIT0_E.exit.i.i
  %19 = getelementptr inbounds nuw i8, ptr %4, i64 96
  %20 = load ptr, ptr %19, align 8, !tbaa !74
  %21 = getelementptr inbounds nuw i8, ptr %4, i64 104
  %22 = load ptr, ptr %21, align 8, !tbaa !75
  %.not4.i.i.i.i1.i = icmp eq ptr %20, %22
  br i1 %.not4.i.i.i.i1.i, label %_ZSt8_DestroyIPNSt7__cxx1112basic_stringIcSt11char_traitsIcESaIcEEES5_EvT_S7_RSaIT0_E.exit.i.i, label %.lr.ph.i.i.i.i2.i

.lr.ph.i.i.i.i2.i:                                ; preds = %_ZNSt6vectorIN11OpenImageIO6v3_1_010ParamValueESaIS2_EED2Ev.exit.i, %_ZSt8_DestroyINSt7__cxx1112basic_stringIcSt11char_traitsIcESaIcEEEEvPT_.exit.i.i.i.i.i
  %.05.i.i.i.i3.i = phi ptr [ %31, %_ZSt8_DestroyINSt7__cxx1112basic_stringIcSt11char_traitsIcESaIcEEEEvPT_.exit.i.i.i.i.i ], [ %20, %_ZNSt6vectorIN11OpenImageIO6v3_1_010ParamValueESaIS2_EED2Ev.exit.i ]
  %23 = load ptr, ptr %.05.i.i.i.i3.i, align 8, !tbaa !63
  %24 = getelementptr inbounds nuw i8, ptr %.05.i.i.i.i3.i, i64 16
  %25 = icmp eq ptr %23, %24
  br i1 %25, label %_ZNKSt7__cxx1112basic_stringIcSt11char_traitsIcESaIcEE11_M_is_localEv.exit.thread.i.i.i.i.i.i.i.i, label %_ZNKSt7__cxx1112basic_stringIcSt11char_traitsIcESaIcEE11_M_is_localEv.exit.i.i.i.i.i.i.i.i

_ZNKSt7__cxx1112basic_stringIcSt11char_traitsIcESaIcEE11_M_is_localEv.exit.thread.i.i.i.i.i.i.i.i: ; preds = %.lr.ph.i.i.i.i2.i
  %26 = getelementptr inbounds nuw i8, ptr %.05.i.i.i.i3.i, i64 8
  %27 = load i64, ptr %26, align 8, !tbaa !64
  %28 = icmp ult i64 %27, 16
  call void @llvm.assume(i1 %28)
  br label %_ZSt8_DestroyINSt7__cxx1112basic_stringIcSt11char_traitsIcESaIcEEEEvPT_.exit.i.i.i.i.i

_ZNKSt7__cxx1112basic_stringIcSt11char_traitsIcESaIcEE11_M_is_localEv.exit.i.i.i.i.i.i.i.i: ; preds = %.lr.ph.i.i.i.i2.i
  %29 = load i64, ptr %24, align 8, !tbaa !65
  %30 = add i64 %29, 1
  call void @_ZdlPvm(ptr noundef %23, i64 noundef %30) #28
  br label %_ZSt8_DestroyINSt7__cxx1112basic_stringIcSt11char_traitsIcESaIcEEEEvPT_.exit.i.i.i.i.i

_ZSt8_DestroyINSt7__cxx1112basic_stringIcSt11char_traitsIcESaIcEEEEvPT_.exit.i.i.i.i.i: ; preds = %_ZNKSt7__cxx1112basic_stringIcSt11char_traitsIcESaIcEE11_M_is_localEv.exit.i.i.i.i.i.i.i.i, %_ZNKSt7__cxx1112basic_stringIcSt11char_traitsIcESaIcEE11_M_is_localEv.exit.thread.i.i.i.i.i.i.i.i
  %31 = getelementptr inbounds nuw i8, ptr %.05.i.i.i.i3.i, i64 32
  %.not.i.i.i.i4.i = icmp eq ptr %31, %22
  br i1 %.not.i.i.i.i4.i, label %_ZSt8_DestroyIPNSt7__cxx1112basic_stringIcSt11char_traitsIcESaIcEEES5_EvT_S7_RSaIT0_E.exitthread-pre-split.i.i, label %.lr.ph.i.i.i.i2.i, !llvm.loop !76

_ZSt8_DestroyIPNSt7__cxx1112basic_stringIcSt11char_traitsIcESaIcEEES5_EvT_S7_RSaIT0_E.exitthread-pre-split.i.i: ; preds = %_ZSt8_DestroyINSt7__cxx1112basic_stringIcSt11char_traitsIcESaIcEEEEvPT_.exit.i.i.i.i.i
  %.pr.i5.i = load ptr, ptr %19, align 8, !tbaa !74
  br label %_ZSt8_DestroyIPNSt7__cxx1112basic_stringIcSt11char_traitsIcESaIcEEES5_EvT_S7_RSaIT0_E.exit.i.i

_ZSt8_DestroyIPNSt7__cxx1112basic_stringIcSt11char_traitsIcESaIcEEES5_EvT_S7_RSaIT0_E.exit.i.i: ; preds = %_ZSt8_DestroyIPNSt7__cxx1112basic_stringIcSt11char_traitsIcESaIcEEES5_EvT_S7_RSaIT0_E.exitthread-pre-split.i.i, %_ZNSt6vectorIN11OpenImageIO6v3_1_010ParamValueESaIS2_EED2Ev.exit.i
  %32 = phi ptr [ %.pr.i5.i, %_ZSt8_DestroyIPNSt7__cxx1112basic_stringIcSt11char_traitsIcESaIcEEES5_EvT_S7_RSaIT0_E.exitthread-pre-split.i.i ], [ %20, %_ZNSt6vectorIN11OpenImageIO6v3_1_010ParamValueESaIS2_EED2Ev.exit.i ]
  %.not.i.i.i6.i = icmp eq ptr %32, null
  br i1 %.not.i.i.i6.i, label %_ZNSt6vectorINSt7__cxx1112basic_stringIcSt11char_traitsIcESaIcEEESaIS5_EED2Ev.exit.i, label %33

33:                                               ; preds = %_ZSt8_DestroyIPNSt7__cxx1112basic_stringIcSt11char_traitsIcESaIcEEES5_EvT_S7_RSaIT0_E.exit.i.i
  %34 = getelementptr inbounds nuw i8, ptr %4, i64 112
  %35 = load ptr, ptr %34, align 8, !tbaa !77
  %36 = ptrtoint ptr %35 to i64
  %37 = ptrtoint ptr %32 to i64
  %38 = sub i64 %36, %37
  call void @_ZdlPvm(ptr noundef nonnull %32, i64 noundef %38) #28
  br label %_ZNSt6vectorINSt7__cxx1112basic_stringIcSt11char_traitsIcESaIcEEESaIS5_EED2Ev.exit.i

_ZNSt6vectorINSt7__cxx1112basic_stringIcSt11char_traitsIcESaIcEEESaIS5_EED2Ev.exit.i: ; preds = %33, %_ZSt8_DestroyIPNSt7__cxx1112basic_stringIcSt11char_traitsIcESaIcEEES5_EvT_S7_RSaIT0_E.exit.i.i
  %39 = getelementptr inbounds nuw i8, ptr %4, i64 72
  %40 = load ptr, ptr %39, align 8, !tbaa !78
  %.not.i.i.i7.i = icmp eq ptr %40, null
  br i1 %.not.i.i.i7.i, label %_ZN11OpenImageIO6v3_1_09ImageSpecD2Ev.exit, label %41

41:                                               ; preds = %_ZNSt6vectorINSt7__cxx1112basic_stringIcSt11char_traitsIcESaIcEEESaIS5_EED2Ev.exit.i
  %42 = getelementptr inbounds nuw i8, ptr %4, i64 88
  %43 = load ptr, ptr %42, align 8, !tbaa !79
  %44 = ptrtoint ptr %43 to i64
  %45 = ptrtoint ptr %40 to i64
  %46 = sub i64 %44, %45
  call void @_ZdlPvm(ptr noundef nonnull %40, i64 noundef %46) #28
  br label %_ZN11OpenImageIO6v3_1_09ImageSpecD2Ev.exit

_ZN11OpenImageIO6v3_1_09ImageSpecD2Ev.exit:       ; preds = %_ZNSt6vectorINSt7__cxx1112basic_stringIcSt11char_traitsIcESaIcEEESaIS5_EED2Ev.exit.i, %41
  call void @llvm.lifetime.end.p0(i64 160, ptr nonnull %4) #27
  ret i1 %5

47:                                               ; preds = %3
  %48 = landingpad { ptr, i32 }
          cleanup
  call void @_ZN11OpenImageIO6v3_1_09ImageSpecD2Ev(ptr noundef nonnull align 8 dereferenceable(160) %4) #27
  call void @llvm.lifetime.end.p0(i64 160, ptr nonnull %4) #27
  resume { ptr, i32 } %48
}